; Function Attrs: mustprogress uwtable
define internal void @_ZN32pxrInternal_v0_24__pxrReserved__12_GLOBAL__N_119_PrimvarsDataSource8GetNamesEv(ptr dead_on_unwind noalias writable sret(%"class.std::vector.5") align 8 %0, ptr nocapture noundef nonnull readonly align 8 dereferenceable(73) %1) unnamed_addr #0 align 2 {
  %3 = getelementptr inbounds nuw i8, ptr %1, i64 8
  %4 = load ptr, ptr %3, align 8
  %5 = load ptr, ptr %4, align 8
  %6 = getelementptr inbounds i8, ptr %5, i64 16
  %7 = load ptr, ptr %6, align 8
  tail call void %7(ptr dead_on_unwind writable sret(%"class.std::vector.5") align 8 %0, ptr noundef nonnull align 8 dereferenceable(8) %4)
  ret void
}